target datalayout = "e-m:e-p270:32:32-p271:32:32-p272:64:64-i64:64-i128:128-f80:128-n8:16:32:64-S128"
target triple = "x86_64-pc-linux-gnu"

%struct.SDL_BlitInfo = type { ptr, ptr, i32, i32, i32, i32, ptr, ptr, i32, i32, i32, i32, ptr, ptr, ptr, ptr, ptr, ptr, i32, i32, i8, i8, i8, i8 }
%struct.SDL_PixelFormatDetails = type { i32, i8, i8, [2 x i8], i32, i32, i32, i32, i8, i8, i8, i8, i8, i8, i8, i8 }

; Function Attrs: alwaysinline nounwind uwtable
define internal void @BlitBto4(ptr noundef %0, i32 noundef %1) #2 {
  %3 = alloca ptr, align 8
  %4 = alloca i32, align 4
  %5 = alloca i32, align 4
  %6 = alloca i32, align 4
  %7 = alloca i32, align 4
  %8 = alloca i32, align 4
  %9 = alloca ptr, align 8
  %10 = alloca ptr, align 8
  %11 = alloca ptr, align 8
  %12 = alloca i32, align 4
  %13 = alloca i32, align 4
  %14 = alloca i32, align 4
  %15 = alloca i8, align 1
  %16 = alloca i8, align 1
  %17 = alloca i8, align 1
  %18 = alloca i8, align 1
  store ptr %0, ptr %3, align 8
  store i32 %1, ptr %4, align 4
  call void @llvm.lifetime.start.p0(i64 4, ptr %5) #4
  %19 = load i32, ptr %4, align 4
  %20 = shl i32 1, %19
  %21 = sub nsw i32 %20, 1
  store i32 %21, ptr %5, align 4
  call void @llvm.lifetime.start.p0(i64 4, ptr %6) #4
  %22 = load i32, ptr %4, align 4
  %23 = udiv i32 8, %22
  %24 = sub i32 %23, 1
  store i32 %24, ptr %6, align 4
  call void @llvm.lifetime.start.p0(i64 4, ptr %7) #4
  call void @llvm.lifetime.start.p0(i64 4, ptr %8) #4
  call void @llvm.lifetime.start.p0(i64 8, ptr %9) #4
  call void @llvm.lifetime.start.p0(i64 8, ptr %10) #4
  call void @llvm.lifetime.start.p0(i64 8, ptr %11) #4
  call void @llvm.lifetime.start.p0(i64 4, ptr %12) #4
  call void @llvm.lifetime.start.p0(i64 4, ptr %13) #4
  call void @llvm.lifetime.start.p0(i64 4, ptr %14) #4
  %25 = load ptr, ptr %3, align 8
  %26 = getelementptr inbounds nuw %struct.SDL_BlitInfo, ptr %25, i32 0, i32 8
  %27 = load i32, ptr %26, align 8
  store i32 %27, ptr %7, align 4
  %28 = load ptr, ptr %3, align 8
  %29 = getelementptr inbounds nuw %struct.SDL_BlitInfo, ptr %28, i32 0, i32 9
  %30 = load i32, ptr %29, align 4
  store i32 %30, ptr %8, align 4
  %31 = load ptr, ptr %3, align 8
  %32 = getelementptr inbounds nuw %struct.SDL_BlitInfo, ptr %31, i32 0, i32 1
  %33 = load ptr, ptr %32, align 8
  store ptr %33, ptr %9, align 8
  %34 = load ptr, ptr %3, align 8
  %35 = getelementptr inbounds nuw %struct.SDL_BlitInfo, ptr %34, i32 0, i32 5
  %36 = load i32, ptr %35, align 4
  store i32 %36, ptr %12, align 4
  %37 = load ptr, ptr %3, align 8
  %38 = getelementptr inbounds nuw %struct.SDL_BlitInfo, ptr %37, i32 0, i32 7
  %39 = load ptr, ptr %38, align 8
  store ptr %39, ptr %11, align 8
  %40 = load ptr, ptr %3, align 8
  %41 = getelementptr inbounds nuw %struct.SDL_BlitInfo, ptr %40, i32 0, i32 11
  %42 = load i32, ptr %41, align 4
  %43 = sdiv i32 %42, 4
  store i32 %43, ptr %13, align 4
  %44 = load ptr, ptr %3, align 8
  %45 = getelementptr inbounds nuw %struct.SDL_BlitInfo, ptr %44, i32 0, i32 16
  %46 = load ptr, ptr %45, align 8
  store ptr %46, ptr %10, align 8
  %47 = load i32, ptr %4, align 4
  %48 = icmp eq i32 %47, 4
  br i1 %48, label %49, label %57

49:                                               ; preds = %2
  %50 = load i32, ptr %7, align 4
  %51 = load i32, ptr %7, align 4
  %52 = add nsw i32 %51, 1
  %53 = sdiv i32 %52, 2
  %54 = sub nsw i32 %50, %53
  %55 = load i32, ptr %12, align 4
  %56 = add nsw i32 %55, %54
  store i32 %56, ptr %12, align 4
  br label %81

57:                                               ; preds = %2
  %58 = load i32, ptr %4, align 4
  %59 = icmp eq i32 %58, 2
  br i1 %59, label %60, label %68

60:                                               ; preds = %57
  %61 = load i32, ptr %7, align 4
  %62 = load i32, ptr %7, align 4
  %63 = add nsw i32 %62, 3
  %64 = sdiv i32 %63, 4
  %65 = sub nsw i32 %61, %64
  %66 = load i32, ptr %12, align 4
  %67 = add nsw i32 %66, %65
  store i32 %67, ptr %12, align 4
  br label %80

68:                                               ; preds = %57
  %69 = load i32, ptr %4, align 4
  %70 = icmp eq i32 %69, 1
  br i1 %70, label %71, label %79

71:                                               ; preds = %68
  %72 = load i32, ptr %7, align 4
  %73 = load i32, ptr %7, align 4
  %74 = add nsw i32 %73, 7
  %75 = sdiv i32 %74, 8
  %76 = sub nsw i32 %72, %75
  %77 = load i32, ptr %12, align 4
  %78 = add nsw i32 %77, %76
  store i32 %78, ptr %12, align 4
  br label %79

79:                                               ; preds = %71, %68
  br label %80

80:                                               ; preds = %79, %60
  br label %81

81:                                               ; preds = %80, %49
  %82 = load ptr, ptr %3, align 8
  %83 = getelementptr inbounds nuw %struct.SDL_BlitInfo, ptr %82, i32 0, i32 12
  %84 = load ptr, ptr %83, align 8
  %85 = getelementptr inbounds nuw %struct.SDL_PixelFormatDetails, ptr %84, i32 0, i32 0
  %86 = load i32, ptr %85, align 4
  %87 = lshr i32 %86, 20
  %88 = and i32 %87, 15
  %89 = icmp eq i32 %88, 1
  br i1 %89, label %90, label %141

90:                                               ; preds = %81
  br label %91

91:                                               ; preds = %131, %90
  %92 = load i32, ptr %8, align 4
  %93 = add nsw i32 %92, -1
  store i32 %93, ptr %8, align 4
  %94 = icmp ne i32 %92, 0
  br i1 %94, label %95, label %140

95:                                               ; preds = %91
  call void @llvm.lifetime.start.p0(i64 1, ptr %15) #4
  store i8 0, ptr %15, align 1
  call void @llvm.lifetime.start.p0(i64 1, ptr %16) #4
  store i32 0, ptr %14, align 4
  br label %96

96:                                               ; preds = %128, %95
  %97 = load i32, ptr %14, align 4
  %98 = load i32, ptr %7, align 4
  %99 = icmp slt i32 %97, %98
  br i1 %99, label %100, label %131

100:                                              ; preds = %96
  %101 = load i32, ptr %14, align 4
  %102 = load i32, ptr %6, align 4
  %103 = and i32 %101, %102
  %104 = icmp ne i32 %103, 0
  br i1 %104, label %109, label %105

105:                                              ; preds = %100
  %106 = load ptr, ptr %9, align 8
  %107 = getelementptr inbounds nuw i8, ptr %106, i32 1
  store ptr %107, ptr %9, align 8
  %108 = load i8, ptr %106, align 1
  store i8 %108, ptr %15, align 1
  br label %109

109:                                              ; preds = %105, %100
  %110 = load i8, ptr %15, align 1
  %111 = zext i8 %110 to i32
  %112 = load i32, ptr %5, align 4
  %113 = and i32 %111, %112
  %114 = trunc i32 %113 to i8
  store i8 %114, ptr %16, align 1
  %115 = load ptr, ptr %10, align 8
  %116 = load i8, ptr %16, align 1
  %117 = zext i8 %116 to i64
  %118 = getelementptr inbounds nuw i32, ptr %115, i64 %117
  %119 = load i32, ptr %118, align 4
  %120 = load ptr, ptr %11, align 8
  store i32 %119, ptr %120, align 4
  %121 = load i32, ptr %4, align 4
  %122 = load i8, ptr %15, align 1
  %123 = zext i8 %122 to i32
  %124 = ashr i32 %123, %121
  %125 = trunc i32 %124 to i8
  store i8 %125, ptr %15, align 1
  %126 = load ptr, ptr %11, align 8
  %127 = getelementptr inbounds nuw i32, ptr %126, i32 1
  store ptr %127, ptr %11, align 8
  br label %128

128:                                              ; preds = %109
  %129 = load i32, ptr %14, align 4
  %130 = add nsw i32 %129, 1
  store i32 %130, ptr %14, align 4
  br label %96, !llvm.loop !28

131:                                              ; preds = %96
  %132 = load i32, ptr %12, align 4
  %133 = load ptr, ptr %9, align 8
  %134 = sext i32 %132 to i64
  %135 = getelementptr inbounds i8, ptr %133, i64 %134
  store ptr %135, ptr %9, align 8
  %136 = load i32, ptr %13, align 4
  %137 = load ptr, ptr %11, align 8
  %138 = sext i32 %136 to i64
  %139 = getelementptr inbounds i32, ptr %137, i64 %138
  store ptr %139, ptr %11, align 8
  call void @llvm.lifetime.end.p0(i64 1, ptr %16) #4
  call void @llvm.lifetime.end.p0(i64 1, ptr %15) #4
  br label %91, !llvm.loop !29

140:                                              ; preds = %91
  br label %195

141:                                              ; preds = %81
  br label %142

142:                                              ; preds = %185, %141
  %143 = load i32, ptr %8, align 4
  %144 = add nsw i32 %143, -1
  store i32 %144, ptr %8, align 4
  %145 = icmp ne i32 %143, 0
  br i1 %145, label %146, label %194

146:                                              ; preds = %142
  call void @llvm.lifetime.start.p0(i64 1, ptr %17) #4
  store i8 0, ptr %17, align 1
  call void @llvm.lifetime.start.p0(i64 1, ptr %18) #4
  store i32 0, ptr %14, align 4
  br label %147

147:                                              ; preds = %182, %146
  %148 = load i32, ptr %14, align 4
  %149 = load i32, ptr %7, align 4
  %150 = icmp slt i32 %148, %149
  br i1 %150, label %151, label %185

151:                                              ; preds = %147
  %152 = load i32, ptr %14, align 4
  %153 = load i32, ptr %6, align 4
  %154 = and i32 %152, %153
  %155 = icmp ne i32 %154, 0
  br i1 %155, label %160, label %156

156:                                              ; preds = %151
  %157 = load ptr, ptr %9, align 8
  %158 = getelementptr inbounds nuw i8, ptr %157, i32 1
  store ptr %158, ptr %9, align 8
  %159 = load i8, ptr %157, align 1
  store i8 %159, ptr %17, align 1
  br label %160

160:                                              ; preds = %156, %151
  %161 = load i8, ptr %17, align 1
  %162 = zext i8 %161 to i32
  %163 = load i32, ptr %4, align 4
  %164 = sub i32 8, %163
  %165 = ashr i32 %162, %164
  %166 = load i32, ptr %5, align 4
  %167 = and i32 %165, %166
  %168 = trunc i32 %167 to i8
  store i8 %168, ptr %18, align 1
  %169 = load ptr, ptr %10, align 8
  %170 = load i8, ptr %18, align 1
  %171 = zext i8 %170 to i64
  %172 = getelementptr inbounds nuw i32, ptr %169, i64 %171
  %173 = load i32, ptr %172, align 4
  %174 = load ptr, ptr %11, align 8
  store i32 %173, ptr %174, align 4
  %175 = load i32, ptr %4, align 4
  %176 = load i8, ptr %17, align 1
  %177 = zext i8 %176 to i32
  %178 = shl i32 %177, %175
  %179 = trunc i32 %178 to i8
  store i8 %179, ptr %17, align 1
  %180 = load ptr, ptr %11, align 8
  %181 = getelementptr inbounds nuw i32, ptr %180, i32 1
  store ptr %181, ptr %11, align 8
  br label %182

182:                                              ; preds = %160
  %183 = load i32, ptr %14, align 4
  %184 = add nsw i32 %183, 1
  store i32 %184, ptr %14, align 4
  br label %147, !llvm.loop !30

185:                                              ; preds = %147
  %186 = load i32, ptr %12, align 4
  %187 = load ptr, ptr %9, align 8
  %188 = sext i32 %186 to i64
  %189 = getelementptr inbounds i8, ptr %187, i64 %188
  store ptr %189, ptr %9, align 8
  %190 = load i32, ptr %13, align 4
  %191 = load ptr, ptr %11, align 8
  %192 = sext i32 %190 to i64
  %193 = getelementptr inbounds i32, ptr %191, i64 %192
  store ptr %193, ptr %11, align 8
  call void @llvm.lifetime.end.p0(i64 1, ptr %18) #4
  call void @llvm.lifetime.end.p0(i64 1, ptr %17) #4
  br label %142, !llvm.loop !31

194:                                              ; preds = %142
  br label %195

195:                                              ; preds = %194, %140
  call void @llvm.lifetime.end.p0(i64 4, ptr %14) #4
  call void @llvm.lifetime.end.p0(i64 4, ptr %13) #4
  call void @llvm.lifetime.end.p0(i64 4, ptr %12) #4
  call void @llvm.lifetime.end.p0(i64 8, ptr %11) #4
  call void @llvm.lifetime.end.p0(i64 8, ptr %10) #4
  call void @llvm.lifetime.end.p0(i64 8, ptr %9) #4
  call void @llvm.lifetime.end.p0(i64 4, ptr %8) #4
  call void @llvm.lifetime.end.p0(i64 4, ptr %7) #4
  call void @llvm.lifetime.end.p0(i64 4, ptr %6) #4
  call void @llvm.lifetime.end.p0(i64 4, ptr %5) #4
  ret void
}

; Function Attrs: nounwind uwtable
define internal void @Blit1bto4(ptr noundef %0) #0 {
  %2 = alloca ptr, align 8
  store ptr %0, ptr %2, align 8
  %3 = load ptr, ptr %2, align 8
  call void @BlitBto4(ptr noundef %3, i32 noundef 1)
  ret void
}